target datalayout = "e-m:e-p270:32:32-p271:32:32-p272:64:64-i64:64-i128:128-f80:128-n8:16:32:64-S128"
target triple = "x86_64-pc-linux-gnu"

%"struct.std::atomic.14" = type { %"struct.std::__atomic_base.15" }
%"struct.std::__atomic_base.15" = type { i8 }
%struct.grpc_cq_completion = type { %"class.grpc_core::ManualConstructor", ptr, ptr, ptr, i64 }
%"class.grpc_core::ManualConstructor" = type { [8 x i8] }
%struct.grpc_completion_queue = type <{ %"class.grpc_core::RefCount", [64 x i8], ptr, [64 x i8], ptr, [64 x i8], ptr, %struct.grpc_closure, i32, [4 x i8] }>
%"class.grpc_core::RefCount" = type { %"struct.std::atomic" }
%"struct.std::atomic" = type { %"struct.std::__atomic_base" }
%"struct.std::__atomic_base" = type { i64 }
%struct.grpc_closure = type { %union.anon, ptr, ptr, %union.anon.10 }
%union.anon = type { ptr }
%union.anon.10 = type { i64 }
%"struct.(anonymous namespace)::cq_pluck_data" = type { %struct.grpc_cq_completion, ptr, %"struct.std::atomic", %"struct.std::atomic", %"struct.std::atomic.14", i8, i32, [6 x %"struct.(anonymous namespace)::plucker"] }
%"struct.(anonymous namespace)::plucker" = type { ptr, ptr }

@.str = private unnamed_addr constant [128 x i8] c"generated/home/dtcxzyw/WorkSpace/Projects/compilers/llvm-opt-benchmark/bench/grpc/grpc/src/core/lib/surface/completion_queue.cc\00", align 1
@.str.41 = private unnamed_addr constant [7 x i8] c"return\00", align 1

; Function Attrs: inlinehint mustprogress nounwind uwtable
define internal void @_ZSt4swapIN12_GLOBAL__N_17pluckerEENSt9enable_ifIXsr6__and_ISt6__not_ISt15__is_tuple_likeIT_EESt21is_move_constructibleIS5_ESt18is_move_assignableIS5_EEE5valueEvE4typeERS5_SE_(ptr noundef nonnull align 8 dereferenceable(16) %0, ptr noundef nonnull align 8 dereferenceable(16) %1) #14 {
  %3 = alloca ptr, align 8
  %4 = alloca ptr, align 8
  %5 = alloca %"struct.(anonymous namespace)::plucker", align 8
  store ptr %0, ptr %3, align 8, !tbaa !355
  store ptr %1, ptr %4, align 8, !tbaa !355
  call void @llvm.lifetime.start.p0(i64 16, ptr %5) #3
  %6 = load ptr, ptr %3, align 8, !tbaa !355
  call void @llvm.memcpy.p0.p0.i64(ptr align 8 %5, ptr align 8 %6, i64 16, i1 false), !tbaa.struct !357
  %7 = load ptr, ptr %4, align 8, !tbaa !355
  %8 = load ptr, ptr %3, align 8, !tbaa !355
  call void @llvm.memcpy.p0.p0.i64(ptr align 8 %8, ptr align 8 %7, i64 16, i1 false), !tbaa.struct !357
  %9 = load ptr, ptr %4, align 8, !tbaa !355
  call void @llvm.memcpy.p0.p0.i64(ptr align 8 %9, ptr align 8 %5, i64 16, i1 false), !tbaa.struct !357
  call void @llvm.lifetime.end.p0(i64 16, ptr %5) #3
  ret void
}

; Function Attrs: mustprogress uwtable
define internal void @_ZL11del_pluckerP21grpc_completion_queuePvPP19grpc_pollset_worker(ptr noundef %0, ptr noundef %1, ptr noundef %2) #6 {
  %4 = alloca ptr, align 8
  %5 = alloca ptr, align 8
  %6 = alloca ptr, align 8
  %7 = alloca ptr, align 8
  %8 = alloca i32, align 4
  %9 = alloca i32, align 4
  store ptr %0, ptr %4, align 8, !tbaa !3
  store ptr %1, ptr %5, align 8, !tbaa !20
  store ptr %2, ptr %6, align 8, !tbaa !348
  call void @llvm.lifetime.start.p0(i64 8, ptr %7) #3
  %10 = load ptr, ptr %4, align 8, !tbaa !3
  %11 = getelementptr inbounds %struct.grpc_completion_queue, ptr %10, i64 1
  store ptr %11, ptr %7, align 8, !tbaa !224
  call void @llvm.lifetime.start.p0(i64 4, ptr %8) #3
  store i32 0, ptr %8, align 4, !tbaa !14
  br label %12

12:                                               ; preds = %57, %3
  %13 = load i32, ptr %8, align 4, !tbaa !14
  %14 = load ptr, ptr %7, align 8, !tbaa !224
  %15 = getelementptr inbounds nuw %"struct.(anonymous namespace)::cq_pluck_data", ptr %14, i32 0, i32 6
  %16 = load i32, ptr %15, align 4, !tbaa !233
  %17 = icmp slt i32 %13, %16
  br i1 %17, label %19, label %18

18:                                               ; preds = %12
  store i32 2, ptr %9, align 4
  br label %60

19:                                               ; preds = %12
  %20 = load ptr, ptr %7, align 8, !tbaa !224
  %21 = getelementptr inbounds nuw %"struct.(anonymous namespace)::cq_pluck_data", ptr %20, i32 0, i32 7
  %22 = load i32, ptr %8, align 4, !tbaa !14
  %23 = sext i32 %22 to i64
  %24 = getelementptr inbounds [6 x %"struct.(anonymous namespace)::plucker"], ptr %21, i64 0, i64 %23
  %25 = getelementptr inbounds nuw %"struct.(anonymous namespace)::plucker", ptr %24, i32 0, i32 1
  %26 = load ptr, ptr %25, align 8, !tbaa !234
  %27 = load ptr, ptr %5, align 8, !tbaa !20
  %28 = icmp eq ptr %26, %27
  br i1 %28, label %29, label %56

29:                                               ; preds = %19
  %30 = load ptr, ptr %7, align 8, !tbaa !224
  %31 = getelementptr inbounds nuw %"struct.(anonymous namespace)::cq_pluck_data", ptr %30, i32 0, i32 7
  %32 = load i32, ptr %8, align 4, !tbaa !14
  %33 = sext i32 %32 to i64
  %34 = getelementptr inbounds [6 x %"struct.(anonymous namespace)::plucker"], ptr %31, i64 0, i64 %33
  %35 = getelementptr inbounds nuw %"struct.(anonymous namespace)::plucker", ptr %34, i32 0, i32 0
  %36 = load ptr, ptr %35, align 8, !tbaa !237
  %37 = load ptr, ptr %6, align 8, !tbaa !348
  %38 = icmp eq ptr %36, %37
  br i1 %38, label %39, label %56

39:                                               ; preds = %29
  %40 = load ptr, ptr %7, align 8, !tbaa !224
  %41 = getelementptr inbounds nuw %"struct.(anonymous namespace)::cq_pluck_data", ptr %40, i32 0, i32 6
  %42 = load i32, ptr %41, align 4, !tbaa !233
  %43 = add nsw i32 %42, -1
  store i32 %43, ptr %41, align 4, !tbaa !233
  %44 = load ptr, ptr %7, align 8, !tbaa !224
  %45 = getelementptr inbounds nuw %"struct.(anonymous namespace)::cq_pluck_data", ptr %44, i32 0, i32 7
  %46 = load i32, ptr %8, align 4, !tbaa !14
  %47 = sext i32 %46 to i64
  %48 = getelementptr inbounds [6 x %"struct.(anonymous namespace)::plucker"], ptr %45, i64 0, i64 %47
  %49 = load ptr, ptr %7, align 8, !tbaa !224
  %50 = getelementptr inbounds nuw %"struct.(anonymous namespace)::cq_pluck_data", ptr %49, i32 0, i32 7
  %51 = load ptr, ptr %7, align 8, !tbaa !224
  %52 = getelementptr inbounds nuw %"struct.(anonymous namespace)::cq_pluck_data", ptr %51, i32 0, i32 6
  %53 = load i32, ptr %52, align 4, !tbaa !233
  %54 = sext i32 %53 to i64
  %55 = getelementptr inbounds [6 x %"struct.(anonymous namespace)::plucker"], ptr %50, i64 0, i64 %54
  call void @_ZSt4swapIN12_GLOBAL__N_17pluckerEENSt9enable_ifIXsr6__and_ISt6__not_ISt15__is_tuple_likeIT_EESt21is_move_constructibleIS5_ESt18is_move_assignableIS5_EEE5valueEvE4typeERS5_SE_(ptr noundef nonnull align 8 dereferenceable(16) %48, ptr noundef nonnull align 8 dereferenceable(16) %55) #3
  store i32 1, ptr %9, align 4
  br label %60

56:                                               ; preds = %29, %19
  br label %57

57:                                               ; preds = %56
  %58 = load i32, ptr %8, align 4, !tbaa !14
  %59 = add nsw i32 %58, 1
  store i32 %59, ptr %8, align 4, !tbaa !14
  br label %12, !llvm.loop !351

60:                                               ; preds = %39, %18
  call void @llvm.lifetime.end.p0(i64 4, ptr %8) #3
  %61 = load i32, ptr %9, align 4
  switch i32 %61, label %66 [
    i32 2, label %62
  ]

62:                                               ; preds = %60
  br label %63

63:                                               ; preds = %62
  call void @gpr_unreachable_code(ptr noundef @.str.41, ptr noundef @.str, i32 noundef 1118) #30
  unreachable

64:                                               ; No predecessors!
  br label %65

65:                                               ; preds = %64
  store i32 0, ptr %9, align 4
  br label %66

66:                                               ; preds = %65, %60
  call void @llvm.lifetime.end.p0(i64 8, ptr %7) #3
  %67 = load i32, ptr %9, align 4
  switch i32 %67, label %69 [
    i32 0, label %68
    i32 1, label %68
  ]

68:                                               ; preds = %66, %66
  ret void

69:                                               ; preds = %66
  unreachable
}