; Function Attrs: mustprogress uwtable
define internal fastcc void @_ZL11del_pluckerP21grpc_completion_queuePvPP19grpc_pollset_worker(ptr noundef captures(none) %0, ptr noundef readnone %1, ptr noundef nonnull readnone %2) unnamed_addr #8 {
  %4 = alloca %"struct.(anonymous namespace)::plucker", align 8
  %5 = getelementptr inbounds nuw i8, ptr %0, i64 332
  %6 = load i32, ptr %5, align 4, !tbaa !152
  %.not22 = icmp sgt i32 %6, 0
  br i1 %.not22, label %.lr.ph, label %.critedge

.lr.ph:                                           ; preds = %3
  %7 = getelementptr inbounds nuw i8, ptr %0, i64 336
  %wide.trip.count = zext nneg i32 %6 to i64
  br label %8

8:                                                ; preds = %.lr.ph, %16
  %indvars.iv = phi i64 [ 0, %.lr.ph ], [ %indvars.iv.next, %16 ]
  %9 = getelementptr inbounds nuw [6 x %"struct.(anonymous namespace)::plucker"], ptr %7, i64 0, i64 %indvars.iv
  %10 = getelementptr inbounds nuw i8, ptr %9, i64 8
  %11 = load ptr, ptr %10, align 8, !tbaa !156
  %12 = icmp eq ptr %11, %1
  br i1 %12, label %13, label %16

13:                                               ; preds = %8
  %14 = load ptr, ptr %9, align 8, !tbaa !159
  %15 = icmp eq ptr %14, %2
  br i1 %15, label %17, label %16

16:                                               ; preds = %8, %13
  %indvars.iv.next = add nuw nsw i64 %indvars.iv, 1
  %exitcond.not = icmp eq i64 %indvars.iv.next, %wide.trip.count
  br i1 %exitcond.not, label %.critedge, label %8, !llvm.loop !166

.critedge:                                        ; preds = %16, %3
  tail call void @gpr_unreachable_code(ptr noundef nonnull @.str.41, ptr noundef nonnull @.str, i32 noundef 1118) #40
  unreachable

17:                                               ; preds = %13
  %18 = add nsw i32 %6, -1
  store i32 %18, ptr %5, align 4, !tbaa !152
  %19 = sext i32 %18 to i64
  %20 = getelementptr inbounds [6 x %"struct.(anonymous namespace)::plucker"], ptr %7, i64 0, i64 %19
  call void @llvm.lifetime.start.p0(i64 16, ptr nonnull %4)
  call void @llvm.memcpy.p0.p0.i64(ptr noundef nonnull align 8 dereferenceable(16) %4, ptr noundef nonnull align 8 dereferenceable(16) %9, i64 16, i1 false), !tbaa.struct !167
  tail call void @llvm.memcpy.p0.p0.i64(ptr noundef nonnull align 8 dereferenceable(16) %9, ptr noundef nonnull align 8 dereferenceable(16) %20, i64 16, i1 false), !tbaa.struct !167
  call void @llvm.memcpy.p0.p0.i64(ptr noundef nonnull align 8 dereferenceable(16) %20, ptr noundef nonnull align 8 dereferenceable(16) %4, i64 16, i1 false), !tbaa.struct !167
  call void @llvm.lifetime.end.p0(i64 16, ptr nonnull %4)
  ret void
}